target datalayout = "e-m:e-p270:32:32-p271:32:32-p272:64:64-i64:64-i128:128-f80:128-n8:16:32:64-S128"
target triple = "x86_64-pc-linux-gnu"

; Function Attrs: nounwind uwtable
define internal double @trc_iec61966_2_4(double noundef %0) #0 {
  %2 = alloca double, align 8
  %3 = alloca double, align 8
  %4 = alloca double, align 8
  store double %0, ptr %2, align 8, !tbaa !27
  call void @llvm.lifetime.start.p0(i64 8, ptr %3) #7
  store double 0x3FF196B844FBE3DC, ptr %3, align 8, !tbaa !27
  call void @llvm.lifetime.start.p0(i64 8, ptr %4) #7
  store double 0x3F927CBD51448945, ptr %4, align 8, !tbaa !27
  %5 = load double, ptr %2, align 8, !tbaa !27
  %6 = fcmp nsz oge double 0xBF927CBD51448945, %5
  br i1 %6, label %7, label %12

7:                                                ; preds = %1
  %8 = load double, ptr %2, align 8, !tbaa !27
  %9 = fneg nsz double %8
  %10 = call nsz double @llvm.pow.f64(double %9, double 4.500000e-01)
  %11 = call nsz double @llvm.fmuladd.f64(double 0xBFF196B844FBE3DC, double %10, double 0x3FB96B844FBE3DC0)
  br label %24

12:                                               ; preds = %1
  %13 = load double, ptr %2, align 8, !tbaa !27
  %14 = fcmp nsz ogt double 0x3F927CBD51448945, %13
  br i1 %14, label %15, label %18

15:                                               ; preds = %12
  %16 = load double, ptr %2, align 8, !tbaa !27
  %17 = fmul nsz double 4.500000e+00, %16
  br label %22

18:                                               ; preds = %12
  %19 = load double, ptr %2, align 8, !tbaa !27
  %20 = call nsz double @llvm.pow.f64(double %19, double 4.500000e-01)
  %21 = call nsz double @llvm.fmuladd.f64(double 0x3FF196B844FBE3DC, double %20, double 0xBFB96B844FBE3DC0)
  br label %22

22:                                               ; preds = %18, %15
  %23 = phi nsz double [ %17, %15 ], [ %21, %18 ]
  br label %24

24:                                               ; preds = %22, %7
  %25 = phi nsz double [ %11, %7 ], [ %23, %22 ]
  call void @llvm.lifetime.end.p0(i64 8, ptr %4) #7
  call void @llvm.lifetime.end.p0(i64 8, ptr %3) #7
  ret double %25
}