; Function Attrs: mustprogress nofree norecurse nosync nounwind willreturn memory(none) uwtable
define internal noundef double @trc_iec61966_2_4(double noundef %0) #0 {
  %2 = fcmp nsz ugt double %0, 0xBF927CBD51448945
  br i1 %2, label %7, label %3

3:                                                ; preds = %1
  %4 = fneg nsz double %0
  %5 = tail call nsz double @llvm.pow.f64(double %4, double 4.500000e-01)
  %6 = tail call nsz double @llvm.fmuladd.f64(double %5, double 0xBFF196B844FBE3DC, double 0x3FB96B844FBE3DC0)
  br label %14

7:                                                ; preds = %1
  %8 = fcmp nsz olt double %0, 0x3F927CBD51448945
  br i1 %8, label %9, label %11

9:                                                ; preds = %7
  %10 = fmul nsz double %0, 4.500000e+00
  br label %14

11:                                               ; preds = %7
  %12 = tail call nsz double @llvm.pow.f64(double %0, double 4.500000e-01)
  %13 = tail call nsz double @llvm.fmuladd.f64(double %12, double 0x3FF196B844FBE3DC, double 0xBFB96B844FBE3DC0)
  br label %14

14:                                               ; preds = %9, %11, %3
  %15 = phi nsz double [ %6, %3 ], [ %10, %9 ], [ %13, %11 ]
  ret double %15
}